#include <math.h>
#include <stdio.h>
#include <stdlib.h>
#include <string.h>


int main(int argc, char* argv[])
{
	int n;
	scanf("%d",&n);
	double x1=0, x2=0, a, b, c, i, j, k, d, e; 
	for(i=1, j=1, k=1;i<=n, j<=n, k<=n;i++, j++, k++)
	{
	 scanf("%lf%lf%lf",&a, &b, &c);
     x1 = (-b + sqrt(b*b-4*a*c))/(2*a); 
     x2 = (-b - sqrt(b*b-4*a*c))/(2*a);
	 if(((x1)*(x2)>=0)&&((x1)!=(x2)))
	 {
	   printf("x1=%.5lf;x2=%.5lf\n", x1, x2);
	 }
	 else if(((x1)*(x2)>=0)&&((x1)=(x2)))
	 {
		 printf("x1=x2=%.5lf\n", x1);
	 }
	 else
	 {
         d=-(b/(2*a));
		 e=sqrt(4*a*c-b*b)/(2*a);
		 printf("x1=%.5lf+%.5lfi;x2=%.5lf-%.5lfi\n", d, e, d, e);
	 }
	}
	return 0;
}

