; ModuleID = 'source-C-CXX/26/1644.c'
source_filename = "source-C-CXX/26/1644.c"
target datalayout = "e-m:e-p270:32:32-p271:32:32-p272:64:64-i64:64-f80:128-n8:16:32:64-S128"
target triple = "x86_64-pc-linux-gnu"

@.str = private unnamed_addr constant [3 x i8] c"%d\00", align 1
@.str.1 = private unnamed_addr constant [10 x i8] c"%lf%lf%lf\00", align 1
@.str.2 = private unnamed_addr constant [19 x i8] c"x1=%.5lf;x2=%.5lf\0A\00", align 1
@.str.3 = private unnamed_addr constant [13 x i8] c"x1=x2=%.5lf\0A\00", align 1
@.str.4 = private unnamed_addr constant [33 x i8] c"x1=%.5lf+%.5lfi;x2=%.5lf-%.5lfi\0A\00", align 1

; Function Attrs: nofree nounwind sspstrong uwtable
define dso_local i32 @main(i32 %0, i8** nocapture readnone %1) local_unnamed_addr #0 {
  %3 = alloca i32, align 4
  %4 = alloca double, align 8
  %5 = alloca double, align 8
  %6 = alloca double, align 8
  %7 = bitcast i32* %3 to i8*
  call void @llvm.lifetime.start.p0i8(i64 4, i8* nonnull %7) #4
  %8 = call i32 (i8*, ...) @__isoc99_scanf(i8* getelementptr inbounds ([3 x i8], [3 x i8]* @.str, i64 0, i64 0), i32* nonnull %3)
  %9 = bitcast double* %4 to i8*
  call void @llvm.lifetime.start.p0i8(i64 8, i8* nonnull %9) #4
  %10 = bitcast double* %5 to i8*
  call void @llvm.lifetime.start.p0i8(i64 8, i8* nonnull %10) #4
  %11 = bitcast double* %6 to i8*
  call void @llvm.lifetime.start.p0i8(i64 8, i8* nonnull %11) #4
  %12 = load i32, i32* %3, align 4, !tbaa !5
  %13 = icmp slt i32 %12, 1
  br i1 %13, label %77, label %14

14:                                               ; preds = %2, %72
  %15 = phi double [ %73, %72 ], [ 1.000000e+00, %2 ]
  %16 = call i32 (i8*, ...) @__isoc99_scanf(i8* getelementptr inbounds ([10 x i8], [10 x i8]* @.str.1, i64 0, i64 0), double* nonnull %4, double* nonnull %5, double* nonnull %6)
  %17 = load double, double* %5, align 8, !tbaa !9
  %18 = fmul double %17, %17
  %19 = load double, double* %4, align 8, !tbaa !9
  %20 = fmul double %19, 4.000000e+00
  %21 = load double, double* %6, align 8, !tbaa !9
  %22 = fmul double %20, %21
  %23 = fsub double %18, %22
  %24 = call double @sqrt(double %23) #4
  %25 = load double, double* %4, align 8, !tbaa !9
  %26 = load double, double* %5, align 8, !tbaa !9
  %27 = fneg double %26
  %28 = fmul double %26, %26
  %29 = fmul double %25, 4.000000e+00
  %30 = load double, double* %6, align 8, !tbaa !9
  %31 = fmul double %29, %30
  %32 = fsub double %28, %31
  %33 = call double @sqrt(double %32) #4
  %34 = insertelement <2 x double> poison, double %24, i32 0
  %35 = insertelement <2 x double> %34, double %27, i32 1
  %36 = insertelement <2 x double> poison, double %17, i32 0
  %37 = insertelement <2 x double> %36, double %33, i32 1
  %38 = fsub <2 x double> %35, %37
  %39 = load double, double* %4, align 8, !tbaa !9
  %40 = insertelement <2 x double> poison, double %25, i32 0
  %41 = insertelement <2 x double> %40, double %39, i32 1
  %42 = fmul <2 x double> %41, <double 2.000000e+00, double 2.000000e+00>
  %43 = fdiv <2 x double> %38, %42
  %44 = extractelement <2 x double> %43, i32 0
  %45 = extractelement <2 x double> %43, i32 1
  %46 = fmul double %44, %45
  %47 = fcmp oge double %46, 0.000000e+00
  %48 = fcmp une double %44, %45
  %49 = and i1 %48, %47
  br i1 %49, label %50, label %52

50:                                               ; preds = %14
  %51 = call i32 (i8*, ...) @printf(i8* nonnull dereferenceable(1) getelementptr inbounds ([19 x i8], [19 x i8]* @.str.2, i64 0, i64 0), double %44, double %45)
  br label %72

52:                                               ; preds = %14
  %53 = fcmp une double %45, 0.000000e+00
  %54 = and i1 %53, %47
  br i1 %54, label %55, label %57

55:                                               ; preds = %52
  %56 = call i32 (i8*, ...) @printf(i8* nonnull dereferenceable(1) getelementptr inbounds ([13 x i8], [13 x i8]* @.str.3, i64 0, i64 0), double %45)
  br label %72

57:                                               ; preds = %52
  %58 = load double, double* %5, align 8, !tbaa !9
  %59 = fneg double %58
  %60 = extractelement <2 x double> %42, i32 1
  %61 = fdiv double %59, %60
  %62 = fmul double %39, 4.000000e+00
  %63 = load double, double* %6, align 8, !tbaa !9
  %64 = fmul double %62, %63
  %65 = fmul double %58, %58
  %66 = fsub double %64, %65
  %67 = call double @sqrt(double %66) #4
  %68 = load double, double* %4, align 8, !tbaa !9
  %69 = fmul double %68, 2.000000e+00
  %70 = fdiv double %67, %69
  %71 = call i32 (i8*, ...) @printf(i8* nonnull dereferenceable(1) getelementptr inbounds ([33 x i8], [33 x i8]* @.str.4, i64 0, i64 0), double %61, double %70, double %61, double %70)
  br label %72

72:                                               ; preds = %50, %57, %55
  %73 = fadd double %15, 1.000000e+00
  %74 = load i32, i32* %3, align 4, !tbaa !5
  %75 = sitofp i32 %74 to double
  %76 = fcmp ugt double %73, %75
  br i1 %76, label %77, label %14, !llvm.loop !11

77:                                               ; preds = %72, %2
  call void @llvm.lifetime.end.p0i8(i64 8, i8* nonnull %11) #4
  call void @llvm.lifetime.end.p0i8(i64 8, i8* nonnull %10) #4
  call void @llvm.lifetime.end.p0i8(i64 8, i8* nonnull %9) #4
  call void @llvm.lifetime.end.p0i8(i64 4, i8* nonnull %7) #4
  ret i32 0
}

; Function Attrs: argmemonly mustprogress nofree nosync nounwind willreturn
declare void @llvm.lifetime.start.p0i8(i64 immarg, i8* nocapture) #1

; Function Attrs: nofree nounwind
declare noundef i32 @__isoc99_scanf(i8* nocapture noundef readonly, ...) local_unnamed_addr #2

; Function Attrs: mustprogress nofree nounwind willreturn
declare double @sqrt(double) local_unnamed_addr #3

; Function Attrs: nofree nounwind
declare noundef i32 @printf(i8* nocapture noundef readonly, ...) local_unnamed_addr #2

; Function Attrs: argmemonly mustprogress nofree nosync nounwind willreturn
declare void @llvm.lifetime.end.p0i8(i64 immarg, i8* nocapture) #1


!llvm.module.flags = !{!0, !1, !2, !3}
!llvm.ident = !{!4}

!0 = !{i32 1, !"wchar_size", i32 4}
!1 = !{i32 7, !"PIC Level", i32 2}
!2 = !{i32 7, !"PIE Level", i32 2}
!3 = !{i32 7, !"uwtable", i32 1}
!4 = !{!"clang version 13.0.0"}
!5 = !{!6, !6, i64 0}
!6 = !{!"int", !7, i64 0}
!7 = !{!"omnipotent char", !8, i64 0}
!8 = !{!"Simple C/C++ TBAA"}
!9 = !{!10, !10, i64 0}
!10 = !{!"double", !7, i64 0}
!11 = distinct !{!11, !12}
!12 = !{!"llvm.loop.mustprogress"}
